; ModuleID = '28/1030.c'
source_filename = "28/1030.c"
target datalayout = "e-m:e-p270:32:32-p271:32:32-p272:64:64-i64:64-f80:128-n8:16:32:64-S128"
target triple = "x86_64-pc-linux-gnu"

@.str = private unnamed_addr constant [3 x i8] c"%d\00", align 1
@.str.1 = private unnamed_addr constant [4 x i8] c",%d\00", align 1

; Function Attrs: noinline nounwind uwtable
define dso_local i32 @main() #0 {
  %1 = alloca i32, align 4
  %2 = alloca [1000 x i8], align 16
  %3 = alloca [300 x [256 x i8]], align 16
  %4 = alloca i32, align 4
  %5 = alloca i32, align 4
  %6 = alloca i32, align 4
  %7 = alloca i32, align 4
  %8 = alloca i32, align 4
  %9 = alloca i32, align 4
  %10 = alloca [300 x i32], align 16
  store i32 0, i32* %1, align 4
  %11 = bitcast [300 x [256 x i8]]* %3 to i8*
  call void @llvm.memset.p0i8.i64(i8* align 16 %11, i8 0, i64 76800, i1 false)
  store i32 1, i32* %4, align 4
  store i32 -1, i32* %7, align 4
  %12 = getelementptr inbounds [1000 x i8], [1000 x i8]* %2, i64 0, i64 0
  %13 = call i32 (i8*, ...) bitcast (i32 (...)* @gets to i32 (i8*, ...)*)(i8* %12)
  store i32 0, i32* %5, align 4
  br label %14

14:                                               ; preds = %40, %0
  %15 = load i32, i32* %5, align 4
  %16 = sext i32 %15 to i64
  %17 = getelementptr inbounds [1000 x i8], [1000 x i8]* %2, i64 0, i64 %16
  %18 = load i8, i8* %17, align 1
  %19 = sext i8 %18 to i32
  %20 = icmp ne i32 %19, 0
  br i1 %20, label %21, label %43

21:                                               ; preds = %14
  %22 = load i32, i32* %5, align 4
  %23 = sext i32 %22 to i64
  %24 = getelementptr inbounds [1000 x i8], [1000 x i8]* %2, i64 0, i64 %23
  %25 = load i8, i8* %24, align 1
  %26 = sext i8 %25 to i32
  %27 = icmp eq i32 %26, 32
  br i1 %27, label %28, label %39

28:                                               ; preds = %21
  %29 = load i32, i32* %5, align 4
  %30 = sub nsw i32 %29, 1
  %31 = sext i32 %30 to i64
  %32 = getelementptr inbounds [1000 x i8], [1000 x i8]* %2, i64 0, i64 %31
  %33 = load i8, i8* %32, align 1
  %34 = sext i8 %33 to i32
  %35 = icmp ne i32 %34, 32
  br i1 %35, label %36, label %39

36:                                               ; preds = %28
  %37 = load i32, i32* %4, align 4
  %38 = add nsw i32 %37, 1
  store i32 %38, i32* %4, align 4
  br label %39

39:                                               ; preds = %36, %28, %21
  br label %40

40:                                               ; preds = %39
  %41 = load i32, i32* %5, align 4
  %42 = add nsw i32 %41, 1
  store i32 %42, i32* %5, align 4
  br label %14

43:                                               ; preds = %14
  store i32 0, i32* %5, align 4
  br label %44

44:                                               ; preds = %108, %43
  %45 = load i32, i32* %5, align 4
  %46 = load i32, i32* %4, align 4
  %47 = icmp slt i32 %45, %46
  br i1 %47, label %48, label %111

48:                                               ; preds = %44
  store i32 0, i32* %9, align 4
  %49 = load i32, i32* %7, align 4
  %50 = add nsw i32 %49, 1
  store i32 %50, i32* %8, align 4
  br label %51

51:                                               ; preds = %61, %48
  %52 = load i32, i32* %8, align 4
  %53 = sext i32 %52 to i64
  %54 = getelementptr inbounds [1000 x i8], [1000 x i8]* %2, i64 0, i64 %53
  %55 = load i8, i8* %54, align 1
  %56 = sext i8 %55 to i32
  %57 = icmp eq i32 %56, 32
  br i1 %57, label %58, label %64

58:                                               ; preds = %51
  %59 = load i32, i32* %9, align 4
  %60 = add nsw i32 %59, 1
  store i32 %60, i32* %9, align 4
  br label %61

61:                                               ; preds = %58
  %62 = load i32, i32* %8, align 4
  %63 = add nsw i32 %62, 1
  store i32 %63, i32* %8, align 4
  br label %51

64:                                               ; preds = %51
  %65 = load i32, i32* %7, align 4
  %66 = add nsw i32 %65, 1
  %67 = load i32, i32* %9, align 4
  %68 = add nsw i32 %66, %67
  store i32 %68, i32* %7, align 4
  store i32 0, i32* %6, align 4
  br label %69

69:                                               ; preds = %96, %64
  %70 = load i32, i32* %7, align 4
  %71 = sext i32 %70 to i64
  %72 = getelementptr inbounds [1000 x i8], [1000 x i8]* %2, i64 0, i64 %71
  %73 = load i8, i8* %72, align 1
  %74 = sext i8 %73 to i32
  %75 = icmp ne i32 %74, 0
  br i1 %75, label %76, label %83

76:                                               ; preds = %69
  %77 = load i32, i32* %7, align 4
  %78 = sext i32 %77 to i64
  %79 = getelementptr inbounds [1000 x i8], [1000 x i8]* %2, i64 0, i64 %78
  %80 = load i8, i8* %79, align 1
  %81 = sext i8 %80 to i32
  %82 = icmp ne i32 %81, 32
  br label %83

83:                                               ; preds = %76, %69
  %84 = phi i1 [ false, %69 ], [ %82, %76 ]
  br i1 %84, label %85, label %101

85:                                               ; preds = %83
  %86 = load i32, i32* %7, align 4
  %87 = sext i32 %86 to i64
  %88 = getelementptr inbounds [1000 x i8], [1000 x i8]* %2, i64 0, i64 %87
  %89 = load i8, i8* %88, align 1
  %90 = load i32, i32* %5, align 4
  %91 = sext i32 %90 to i64
  %92 = getelementptr inbounds [300 x [256 x i8]], [300 x [256 x i8]]* %3, i64 0, i64 %91
  %93 = load i32, i32* %6, align 4
  %94 = sext i32 %93 to i64
  %95 = getelementptr inbounds [256 x i8], [256 x i8]* %92, i64 0, i64 %94
  store i8 %89, i8* %95, align 1
  br label %96

96:                                               ; preds = %85
  %97 = load i32, i32* %6, align 4
  %98 = add nsw i32 %97, 1
  store i32 %98, i32* %6, align 4
  %99 = load i32, i32* %7, align 4
  %100 = add nsw i32 %99, 1
  store i32 %100, i32* %7, align 4
  br label %69

101:                                              ; preds = %83
  %102 = load i32, i32* %5, align 4
  %103 = sext i32 %102 to i64
  %104 = getelementptr inbounds [300 x [256 x i8]], [300 x [256 x i8]]* %3, i64 0, i64 %103
  %105 = load i32, i32* %6, align 4
  %106 = sext i32 %105 to i64
  %107 = getelementptr inbounds [256 x i8], [256 x i8]* %104, i64 0, i64 %106
  store i8 0, i8* %107, align 1
  br label %108

108:                                              ; preds = %101
  %109 = load i32, i32* %5, align 4
  %110 = add nsw i32 %109, 1
  store i32 %110, i32* %5, align 4
  br label %44

111:                                              ; preds = %44
  %112 = getelementptr inbounds [300 x [256 x i8]], [300 x [256 x i8]]* %3, i64 0, i64 0
  %113 = getelementptr inbounds [256 x i8], [256 x i8]* %112, i64 0, i64 0
  %114 = call i64 @strlen(i8* %113) #4
  %115 = trunc i64 %114 to i32
  %116 = getelementptr inbounds [300 x i32], [300 x i32]* %10, i64 0, i64 0
  store i32 %115, i32* %116, align 16
  %117 = getelementptr inbounds [300 x i32], [300 x i32]* %10, i64 0, i64 0
  %118 = load i32, i32* %117, align 16
  %119 = call i32 (i8*, ...) @printf(i8* getelementptr inbounds ([3 x i8], [3 x i8]* @.str, i64 0, i64 0), i32 %118)
  store i32 1, i32* %5, align 4
  br label %120

120:                                              ; preds = %139, %111
  %121 = load i32, i32* %5, align 4
  %122 = load i32, i32* %4, align 4
  %123 = icmp slt i32 %121, %122
  br i1 %123, label %124, label %142

124:                                              ; preds = %120
  %125 = load i32, i32* %5, align 4
  %126 = sext i32 %125 to i64
  %127 = getelementptr inbounds [300 x [256 x i8]], [300 x [256 x i8]]* %3, i64 0, i64 %126
  %128 = getelementptr inbounds [256 x i8], [256 x i8]* %127, i64 0, i64 0
  %129 = call i64 @strlen(i8* %128) #4
  %130 = trunc i64 %129 to i32
  %131 = load i32, i32* %5, align 4
  %132 = sext i32 %131 to i64
  %133 = getelementptr inbounds [300 x i32], [300 x i32]* %10, i64 0, i64 %132
  store i32 %130, i32* %133, align 4
  %134 = load i32, i32* %5, align 4
  %135 = sext i32 %134 to i64
  %136 = getelementptr inbounds [300 x i32], [300 x i32]* %10, i64 0, i64 %135
  %137 = load i32, i32* %136, align 4
  %138 = call i32 (i8*, ...) @printf(i8* getelementptr inbounds ([4 x i8], [4 x i8]* @.str.1, i64 0, i64 0), i32 %137)
  br label %139

139:                                              ; preds = %124
  %140 = load i32, i32* %5, align 4
  %141 = add nsw i32 %140, 1
  store i32 %141, i32* %5, align 4
  br label %120

142:                                              ; preds = %120
  ret i32 0
}

; Function Attrs: argmemonly nounwind willreturn
declare void @llvm.memset.p0i8.i64(i8* nocapture writeonly, i8, i64, i1 immarg) #1

declare dso_local i32 @gets(...) #2

; Function Attrs: nounwind readonly
declare dso_local i64 @strlen(i8*) #3

declare dso_local i32 @printf(i8*, ...) #2


!llvm.module.flags = !{!0}
!llvm.ident = !{!1}

!0 = !{i32 1, !"wchar_size", i32 4}
!1 = !{!"clang version 10.0.0-4ubuntu1 "}
